; Function Attrs: nounwind uwtable
define void @Bnd_ManMap(i32 noundef %0, i32 noundef %1, i32 noundef %2) local_unnamed_addr #1 {
  %.not = icmp eq i32 %2, 0
  %4 = load ptr, ptr @pBnd, align 8
  %5 = ashr i32 %0, 1
  %6 = sext i32 %5 to i64
  br i1 %.not, label %48, label %7

7:                                                ; preds = %3
  %8 = getelementptr inbounds nuw i8, ptr %4, i64 88
  %9 = load ptr, ptr %8, align 8
  %10 = getelementptr i8, ptr %9, i64 8
  %.val = load ptr, ptr %10, align 8
  %11 = getelementptr inbounds ptr, ptr %.val, i64 %6
  %12 = load ptr, ptr %11, align 8
  %13 = getelementptr inbounds nuw i8, ptr %12, i64 4
  %14 = load i32, ptr %13, align 4
  %15 = load i32, ptr %12, align 8
  %16 = icmp eq i32 %14, %15
  br i1 %16, label %17, label %.Vec_IntGrow.exit10_crit_edge.i

.Vec_IntGrow.exit10_crit_edge.i:                  ; preds = %7
  %.phi.trans.insert.i = getelementptr inbounds nuw i8, ptr %12, i64 8
  %.pre.i = load ptr, ptr %.phi.trans.insert.i, align 8
  br label %Vec_IntPush.exit

17:                                               ; preds = %7
  %18 = icmp slt i32 %14, 16
  br i1 %18, label %19, label %27

19:                                               ; preds = %17
  %20 = getelementptr inbounds nuw i8, ptr %12, i64 8
  %21 = load ptr, ptr %20, align 8
  %.not9.i.i = icmp eq ptr %21, null
  br i1 %.not9.i.i, label %24, label %22

22:                                               ; preds = %19
  %23 = tail call dereferenceable_or_null(64) ptr @realloc(ptr noundef nonnull %21, i64 noundef 64) #19
  br label %Vec_IntGrow.exit.i

24:                                               ; preds = %19
  %25 = tail call noalias dereferenceable_or_null(64) ptr @malloc(i64 noundef 64) #18
  br label %Vec_IntGrow.exit.i

Vec_IntGrow.exit.i:                               ; preds = %24, %22
  %26 = phi ptr [ %23, %22 ], [ %25, %24 ]
  store ptr %26, ptr %20, align 8
  store i32 16, ptr %12, align 8
  br label %Vec_IntPush.exit

27:                                               ; preds = %17
  %28 = shl nuw nsw i32 %14, 1
  %29 = getelementptr inbounds nuw i8, ptr %12, i64 8
  %30 = load ptr, ptr %29, align 8
  %.not9.i9.i = icmp eq ptr %30, null
  %31 = zext nneg i32 %28 to i64
  %32 = shl nuw nsw i64 %31, 2
  br i1 %.not9.i9.i, label %35, label %33

33:                                               ; preds = %27
  %34 = tail call ptr @realloc(ptr noundef nonnull %30, i64 noundef %32) #19
  br label %37

35:                                               ; preds = %27
  %36 = tail call noalias ptr @malloc(i64 noundef %32) #18
  br label %37

37:                                               ; preds = %35, %33
  %38 = phi ptr [ %34, %33 ], [ %36, %35 ]
  store ptr %38, ptr %29, align 8
  store i32 %28, ptr %12, align 8
  br label %Vec_IntPush.exit

Vec_IntPush.exit:                                 ; preds = %.Vec_IntGrow.exit10_crit_edge.i, %Vec_IntGrow.exit.i, %37
  %39 = phi ptr [ %.pre.i, %.Vec_IntGrow.exit10_crit_edge.i ], [ %38, %37 ], [ %26, %Vec_IntGrow.exit.i ]
  %40 = load i32, ptr %13, align 4
  %41 = add nsw i32 %40, 1
  store i32 %41, ptr %13, align 4
  %42 = sext i32 %40 to i64
  %43 = getelementptr inbounds i32, ptr %39, i64 %42
  store i32 %1, ptr %43, align 4
  %44 = load ptr, ptr @pBnd, align 8
  %45 = getelementptr inbounds nuw i8, ptr %44, i64 112
  %46 = load ptr, ptr %45, align 8
  %47 = and i32 %0, 1
  tail call fastcc void @Vec_BitSetEntry(ptr noundef %46, i32 noundef %1, i32 noundef %47)
  br label %85

48:                                               ; preds = %3
  %49 = getelementptr inbounds nuw i8, ptr %4, i64 96
  %50 = load ptr, ptr %49, align 8
  %51 = getelementptr i8, ptr %50, i64 8
  %.val7 = load ptr, ptr %51, align 8
  %52 = getelementptr inbounds ptr, ptr %.val7, i64 %6
  %53 = load ptr, ptr %52, align 8
  %54 = getelementptr inbounds nuw i8, ptr %53, i64 4
  %55 = load i32, ptr %54, align 4
  %56 = load i32, ptr %53, align 8
  %57 = icmp eq i32 %55, %56
  br i1 %57, label %58, label %.Vec_IntGrow.exit10_crit_edge.i8

.Vec_IntGrow.exit10_crit_edge.i8:                 ; preds = %48
  %.phi.trans.insert.i9 = getelementptr inbounds nuw i8, ptr %53, i64 8
  %.pre.i10 = load ptr, ptr %.phi.trans.insert.i9, align 8
  br label %Vec_IntPush.exit14

58:                                               ; preds = %48
  %59 = icmp slt i32 %55, 16
  br i1 %59, label %60, label %68

60:                                               ; preds = %58
  %61 = getelementptr inbounds nuw i8, ptr %53, i64 8
  %62 = load ptr, ptr %61, align 8
  %.not9.i.i12 = icmp eq ptr %62, null
  br i1 %.not9.i.i12, label %65, label %63

63:                                               ; preds = %60
  %64 = tail call dereferenceable_or_null(64) ptr @realloc(ptr noundef nonnull %62, i64 noundef 64) #19
  br label %Vec_IntGrow.exit.i13

65:                                               ; preds = %60
  %66 = tail call noalias dereferenceable_or_null(64) ptr @malloc(i64 noundef 64) #18
  br label %Vec_IntGrow.exit.i13

Vec_IntGrow.exit.i13:                             ; preds = %65, %63
  %67 = phi ptr [ %64, %63 ], [ %66, %65 ]
  store ptr %67, ptr %61, align 8
  store i32 16, ptr %53, align 8
  br label %Vec_IntPush.exit14

68:                                               ; preds = %58
  %69 = shl nuw nsw i32 %55, 1
  %70 = getelementptr inbounds nuw i8, ptr %53, i64 8
  %71 = load ptr, ptr %70, align 8
  %.not9.i9.i11 = icmp eq ptr %71, null
  %72 = zext nneg i32 %69 to i64
  %73 = shl nuw nsw i64 %72, 2
  br i1 %.not9.i9.i11, label %76, label %74

74:                                               ; preds = %68
  %75 = tail call ptr @realloc(ptr noundef nonnull %71, i64 noundef %73) #19
  br label %78

76:                                               ; preds = %68
  %77 = tail call noalias ptr @malloc(i64 noundef %73) #18
  br label %78

78:                                               ; preds = %76, %74
  %79 = phi ptr [ %75, %74 ], [ %77, %76 ]
  store ptr %79, ptr %70, align 8
  store i32 %69, ptr %53, align 8
  br label %Vec_IntPush.exit14

Vec_IntPush.exit14:                               ; preds = %.Vec_IntGrow.exit10_crit_edge.i8, %Vec_IntGrow.exit.i13, %78
  %80 = phi ptr [ %.pre.i10, %.Vec_IntGrow.exit10_crit_edge.i8 ], [ %79, %78 ], [ %67, %Vec_IntGrow.exit.i13 ]
  %81 = load i32, ptr %54, align 4
  %82 = add nsw i32 %81, 1
  store i32 %82, ptr %54, align 4
  %83 = sext i32 %81 to i64
  %84 = getelementptr inbounds i32, ptr %80, i64 %83
  store i32 %1, ptr %84, align 4
  br label %85

85:                                               ; preds = %Vec_IntPush.exit14, %Vec_IntPush.exit
  ret void
}